(dp1
Vblue
p2
S'adjective'
p3
sVswim
p4
S'adjective'
p5
sVthem
p6
S'adjective'
p7
sVtree
p8
S'noun'
p9
sVfish
p10
g9
sVoak
p11
g9
sVit
p12
S'pronoun'
p13
sVocra
p14
g9
sVearth
p15
S'adjective'
p16
sVwhale
p17
S'noun'
p18
sVSally
p19
S'name'
p20
sVcreture
p21
S'name'
p22
s.